target datalayout = "e-m:e-p270:32:32-p271:32:32-p272:64:64-i64:64-i128:128-f80:128-n8:16:32:64-S128"
target triple = "x86_64-pc-linux-gnu"

%"class.std::locale" = type { ptr }
%"class.std::__cxx11::basic_string" = type { %"struct.std::__cxx11::basic_string<char>::_Alloc_hider", i64, %union.anon }
%"struct.std::__cxx11::basic_string<char>::_Alloc_hider" = type { ptr }
%union.anon = type { i64, [8 x i8] }
%"class.std::allocator" = type { i8 }
%"class.boost::basic_format" = type { %"class.std::vector", %"class.std::vector.3", i32, i32, i32, i8, %"class.std::__cxx11::basic_string", i8, [7 x i8], %"class.boost::io::basic_altstringbuf", %"class.boost::optional" }
%"class.std::vector" = type { %"struct.std::_Vector_base" }
%"struct.std::_Vector_base" = type { %"struct.std::_Vector_base<boost::io::detail::format_item<char, std::char_traits<char>, std::allocator<char>>, std::allocator<boost::io::detail::format_item<char, std::char_traits<char>, std::allocator<char>>>>::_Vector_impl" }
%"struct.std::_Vector_base<boost::io::detail::format_item<char, std::char_traits<char>, std::allocator<char>>, std::allocator<boost::io::detail::format_item<char, std::char_traits<char>, std::allocator<char>>>>::_Vector_impl" = type { %"struct.std::_Vector_base<boost::io::detail::format_item<char, std::char_traits<char>, std::allocator<char>>, std::allocator<boost::io::detail::format_item<char, std::char_traits<char>, std::allocator<char>>>>::_Vector_impl_data" }
%"struct.std::_Vector_base<boost::io::detail::format_item<char, std::char_traits<char>, std::allocator<char>>, std::allocator<boost::io::detail::format_item<char, std::char_traits<char>, std::allocator<char>>>>::_Vector_impl_data" = type { ptr, ptr, ptr }
%"class.std::vector.3" = type { %"struct.std::_Bvector_base" }
%"struct.std::_Bvector_base" = type { %"struct.std::_Bvector_base<std::allocator<bool>>::_Bvector_impl" }
%"struct.std::_Bvector_base<std::allocator<bool>>::_Bvector_impl" = type { %"struct.std::_Bvector_base<std::allocator<bool>>::_Bvector_impl_data" }
%"struct.std::_Bvector_base<std::allocator<bool>>::_Bvector_impl_data" = type { %"struct.std::_Bit_iterator", %"struct.std::_Bit_iterator", ptr }
%"struct.std::_Bit_iterator" = type { %"struct.std::_Bit_iterator_base.base", [4 x i8] }
%"struct.std::_Bit_iterator_base.base" = type <{ ptr, i32 }>
%"class.boost::io::basic_altstringbuf" = type <{ %"class.std::basic_streambuf", ptr, i8, [3 x i8], i32, %"class.std::allocator", [7 x i8] }>
%"class.std::basic_streambuf" = type { ptr, ptr, ptr, ptr, ptr, ptr, ptr, %"class.std::locale" }
%"class.boost::optional" = type { %"class.boost::optional_detail::optional_base" }
%"class.boost::optional_detail::optional_base" = type { i8, [7 x i8], %"class.boost::optional_detail::aligned_storage" }
%"class.boost::optional_detail::aligned_storage" = type { %"union.boost::optional_detail::aligned_storage<std::locale>::dummy_u" }
%"union.boost::optional_detail::aligned_storage<std::locale>::dummy_u" = type { [8 x i8] }

@.str.11 = private unnamed_addr constant [26 x i8] c"failed with exit code %1%\00", align 1
@.str.12 = private unnamed_addr constant [31 x i8] c"failed due to signal %1% (%2%)\00", align 1
@.str.13 = private unnamed_addr constant [16 x i8] c"died abnormally\00", align 1
@.str.14 = private unnamed_addr constant [10 x i8] c"succeeded\00", align 1

; Function Attrs: mustprogress nounwind uwtable
define linkonce_odr noundef zeroext i8 @_ZN5boost12basic_formatIcSt11char_traitsIcESaIcEE10exceptionsEh(ptr noundef nonnull align 8 dereferenceable(224) %0, i8 noundef zeroext %1) #2 comdat align 2 {
  %3 = alloca ptr, align 8
  %4 = alloca i8, align 1
  %5 = alloca i8, align 1
  store ptr %0, ptr %3, align 8
  store i8 %1, ptr %4, align 1
  %6 = load ptr, ptr %3, align 8
  %7 = getelementptr inbounds %"class.boost::basic_format", ptr %6, i32 0, i32 7
  %8 = load i8, ptr %7, align 8
  store i8 %8, ptr %5, align 1
  %9 = load i8, ptr %4, align 1
  %10 = getelementptr inbounds %"class.boost::basic_format", ptr %6, i32 0, i32 7
  store i8 %9, ptr %10, align 8
  %11 = load i8, ptr %5, align 1
  ret i8 %11
}

; Function Attrs: mustprogress uwtable
define linkonce_odr void @_ZN3nix13setExceptionsERN5boost12basic_formatIcSt11char_traitsIcESaIcEEE(ptr noundef nonnull align 8 dereferenceable(224) %0) #5 comdat {
  %2 = alloca ptr, align 8
  store ptr %0, ptr %2, align 8
  %3 = load ptr, ptr %2, align 8
  %4 = call noundef zeroext i8 @_ZN5boost12basic_formatIcSt11char_traitsIcESaIcEE10exceptionsEh(ptr noundef nonnull align 8 dereferenceable(224) %3, i8 noundef zeroext -7)
  ret void
}

; Function Attrs: mustprogress uwtable
define linkonce_odr void @_ZN3nix3fmtIJiPKcEEENSt7__cxx1112basic_stringIcSt11char_traitsIcESaIcEEERKS8_DpRKT_(ptr dead_on_unwind noalias writable sret(%"class.std::__cxx11::basic_string") align 8 %0, ptr noundef nonnull align 8 dereferenceable(32) %1, ptr noundef nonnull align 4 dereferenceable(4) %2, ptr noundef nonnull align 8 dereferenceable(8) %3) #5 comdat personality ptr @__gxx_personality_v0 {
  %5 = alloca ptr, align 8
  %6 = alloca ptr, align 8
  %7 = alloca ptr, align 8
  %8 = alloca ptr, align 8
  %9 = alloca %"class.boost::basic_format", align 8
  %10 = alloca ptr, align 8
  %11 = alloca i32, align 4
  store ptr %0, ptr %5, align 8
  store ptr %1, ptr %6, align 8
  store ptr %2, ptr %7, align 8
  store ptr %3, ptr %8, align 8
  %12 = load ptr, ptr %6, align 8
  call void @_ZN5boost12basic_formatIcSt11char_traitsIcESaIcEEC2ERKNSt7__cxx1112basic_stringIcS2_S3_EE(ptr noundef nonnull align 8 dereferenceable(224) %9, ptr noundef nonnull align 8 dereferenceable(32) %12)
  invoke void @_ZN3nix13setExceptionsERN5boost12basic_formatIcSt11char_traitsIcESaIcEEE(ptr noundef nonnull align 8 dereferenceable(224) %9)
          to label %13 unwind label %18

13:                                               ; preds = %4
  %14 = load ptr, ptr %7, align 8
  %15 = load ptr, ptr %8, align 8
  invoke void @_ZN3nix12formatHelperIN5boost12basic_formatIcSt11char_traitsIcESaIcEEEiJPKcEEEvRT_RKT0_DpRKT1_(ptr noundef nonnull align 8 dereferenceable(224) %9, ptr noundef nonnull align 4 dereferenceable(4) %14, ptr noundef nonnull align 8 dereferenceable(8) %15)
          to label %16 unwind label %18

16:                                               ; preds = %13
  invoke void @_ZNK5boost12basic_formatIcSt11char_traitsIcESaIcEE3strB5cxx11Ev(ptr dead_on_unwind writable sret(%"class.std::__cxx11::basic_string") align 8 %0, ptr noundef nonnull align 8 dereferenceable(224) %9)
          to label %17 unwind label %18

17:                                               ; preds = %16
  call void @_ZN5boost12basic_formatIcSt11char_traitsIcESaIcEED2Ev(ptr noundef nonnull align 8 dereferenceable(224) %9) #1
  ret void

18:                                               ; preds = %16, %13, %4
  %19 = landingpad { ptr, i32 }
          cleanup
  %20 = extractvalue { ptr, i32 } %19, 0
  store ptr %20, ptr %10, align 8
  %21 = extractvalue { ptr, i32 } %19, 1
  store i32 %21, ptr %11, align 4
  call void @_ZN5boost12basic_formatIcSt11char_traitsIcESaIcEED2Ev(ptr noundef nonnull align 8 dereferenceable(224) %9) #1
  br label %22

22:                                               ; preds = %18
  %23 = load ptr, ptr %10, align 8
  %24 = load i32, ptr %11, align 4
  %25 = insertvalue { ptr, i32 } poison, ptr %23, 0
  %26 = insertvalue { ptr, i32 } %25, i32 %24, 1
  resume { ptr, i32 } %26
}

; Function Attrs: mustprogress uwtable
define void @_ZN3nix14statusToStringB5cxx11Ei(ptr dead_on_unwind noalias writable sret(%"class.std::__cxx11::basic_string") align 8 %0, i32 noundef %1) #5 personality ptr @__gxx_personality_v0 {
  %3 = alloca ptr, align 8
  %4 = alloca i32, align 4
  %5 = alloca %"class.std::__cxx11::basic_string", align 8
  %6 = alloca %"class.std::allocator", align 1
  %7 = alloca ptr, align 8
  %8 = alloca i32, align 4
  %9 = alloca i32, align 4
  %10 = alloca i32, align 4
  %11 = alloca ptr, align 8
  %12 = alloca %"class.std::__cxx11::basic_string", align 8
  %13 = alloca %"class.std::allocator", align 1
  %14 = alloca %"class.std::allocator", align 1
  %15 = alloca %"class.std::allocator", align 1
  store ptr %0, ptr %3, align 8
  store i32 %1, ptr %4, align 4
  %16 = load i32, ptr %4, align 4
  %17 = and i32 %16, 127
  %18 = icmp eq i32 %17, 0
  br i1 %18, label %19, label %24

19:                                               ; preds = %2
  %20 = load i32, ptr %4, align 4
  %21 = and i32 %20, 65280
  %22 = ashr i32 %21, 8
  %23 = icmp ne i32 %22, 0
  br i1 %23, label %24, label %73

24:                                               ; preds = %19, %2
  %25 = load i32, ptr %4, align 4
  %26 = and i32 %25, 127
  %27 = icmp eq i32 %26, 0
  br i1 %27, label %28, label %43

28:                                               ; preds = %24
  call void @_ZNSaIcEC1Ev(ptr noundef nonnull align 1 dereferenceable(1) %6) #1
  invoke void @_ZNSt7__cxx1112basic_stringIcSt11char_traitsIcESaIcEEC2IS3_EEPKcRKS3_(ptr noundef nonnull align 8 dereferenceable(32) %5, ptr noundef @.str.11, ptr noundef nonnull align 1 dereferenceable(1) %6)
          to label %29 unwind label %34

29:                                               ; preds = %28
  %30 = load i32, ptr %4, align 4
  %31 = and i32 %30, 65280
  %32 = ashr i32 %31, 8
  store i32 %32, ptr %9, align 4
  invoke void @_ZN3nix3fmtIJiEEENSt7__cxx1112basic_stringIcSt11char_traitsIcESaIcEEERKS6_DpRKT_(ptr dead_on_unwind writable sret(%"class.std::__cxx11::basic_string") align 8 %0, ptr noundef nonnull align 8 dereferenceable(32) %5, ptr noundef nonnull align 4 dereferenceable(4) %9)
          to label %33 unwind label %38

33:                                               ; preds = %29
  call void @_ZNSt7__cxx1112basic_stringIcSt11char_traitsIcESaIcEED2Ev(ptr noundef nonnull align 8 dereferenceable(32) %5) #1
  call void @_ZNSaIcED1Ev(ptr noundef nonnull align 1 dereferenceable(1) %6) #1
  br label %79

34:                                               ; preds = %28
  %35 = landingpad { ptr, i32 }
          cleanup
  %36 = extractvalue { ptr, i32 } %35, 0
  store ptr %36, ptr %7, align 8
  %37 = extractvalue { ptr, i32 } %35, 1
  store i32 %37, ptr %8, align 4
  br label %42

38:                                               ; preds = %29
  %39 = landingpad { ptr, i32 }
          cleanup
  %40 = extractvalue { ptr, i32 } %39, 0
  store ptr %40, ptr %7, align 8
  %41 = extractvalue { ptr, i32 } %39, 1
  store i32 %41, ptr %8, align 4
  call void @_ZNSt7__cxx1112basic_stringIcSt11char_traitsIcESaIcEED2Ev(ptr noundef nonnull align 8 dereferenceable(32) %5) #1
  br label %42

42:                                               ; preds = %38, %34
  call void @_ZNSaIcED1Ev(ptr noundef nonnull align 1 dereferenceable(1) %6) #1
  br label %80

43:                                               ; preds = %24
  %44 = load i32, ptr %4, align 4
  %45 = and i32 %44, 127
  %46 = add nsw i32 %45, 1
  %47 = trunc i32 %46 to i8
  %48 = sext i8 %47 to i32
  %49 = ashr i32 %48, 1
  %50 = icmp sgt i32 %49, 0
  br i1 %50, label %51, label %67

51:                                               ; preds = %43
  %52 = load i32, ptr %4, align 4
  %53 = and i32 %52, 127
  store i32 %53, ptr %10, align 4
  %54 = load i32, ptr %10, align 4
  %55 = call ptr @strsignal(i32 noundef %54) #1
  store ptr %55, ptr %11, align 8
  call void @_ZNSaIcEC1Ev(ptr noundef nonnull align 1 dereferenceable(1) %13) #1
  invoke void @_ZNSt7__cxx1112basic_stringIcSt11char_traitsIcESaIcEEC2IS3_EEPKcRKS3_(ptr noundef nonnull align 8 dereferenceable(32) %12, ptr noundef @.str.12, ptr noundef nonnull align 1 dereferenceable(1) %13)
          to label %56 unwind label %58

56:                                               ; preds = %51
  invoke void @_ZN3nix3fmtIJiPKcEEENSt7__cxx1112basic_stringIcSt11char_traitsIcESaIcEEERKS8_DpRKT_(ptr dead_on_unwind writable sret(%"class.std::__cxx11::basic_string") align 8 %0, ptr noundef nonnull align 8 dereferenceable(32) %12, ptr noundef nonnull align 4 dereferenceable(4) %10, ptr noundef nonnull align 8 dereferenceable(8) %11)
          to label %57 unwind label %62

57:                                               ; preds = %56
  call void @_ZNSt7__cxx1112basic_stringIcSt11char_traitsIcESaIcEED2Ev(ptr noundef nonnull align 8 dereferenceable(32) %12) #1
  call void @_ZNSaIcED1Ev(ptr noundef nonnull align 1 dereferenceable(1) %13) #1
  br label %79

58:                                               ; preds = %51
  %59 = landingpad { ptr, i32 }
          cleanup
  %60 = extractvalue { ptr, i32 } %59, 0
  store ptr %60, ptr %7, align 8
  %61 = extractvalue { ptr, i32 } %59, 1
  store i32 %61, ptr %8, align 4
  br label %66

62:                                               ; preds = %56
  %63 = landingpad { ptr, i32 }
          cleanup
  %64 = extractvalue { ptr, i32 } %63, 0
  store ptr %64, ptr %7, align 8
  %65 = extractvalue { ptr, i32 } %63, 1
  store i32 %65, ptr %8, align 4
  call void @_ZNSt7__cxx1112basic_stringIcSt11char_traitsIcESaIcEED2Ev(ptr noundef nonnull align 8 dereferenceable(32) %12) #1
  br label %66

66:                                               ; preds = %62, %58
  call void @_ZNSaIcED1Ev(ptr noundef nonnull align 1 dereferenceable(1) %13) #1
  br label %80

67:                                               ; preds = %43
  call void @_ZNSaIcEC1Ev(ptr noundef nonnull align 1 dereferenceable(1) %14) #1
  invoke void @_ZNSt7__cxx1112basic_stringIcSt11char_traitsIcESaIcEEC2IS3_EEPKcRKS3_(ptr noundef nonnull align 8 dereferenceable(32) %0, ptr noundef @.str.13, ptr noundef nonnull align 1 dereferenceable(1) %14)
          to label %68 unwind label %69

68:                                               ; preds = %67
  call void @_ZNSaIcED1Ev(ptr noundef nonnull align 1 dereferenceable(1) %14) #1
  br label %79

69:                                               ; preds = %67
  %70 = landingpad { ptr, i32 }
          cleanup
  %71 = extractvalue { ptr, i32 } %70, 0
  store ptr %71, ptr %7, align 8
  %72 = extractvalue { ptr, i32 } %70, 1
  store i32 %72, ptr %8, align 4
  call void @_ZNSaIcED1Ev(ptr noundef nonnull align 1 dereferenceable(1) %14) #1
  br label %80

73:                                               ; preds = %19
  call void @_ZNSaIcEC1Ev(ptr noundef nonnull align 1 dereferenceable(1) %15) #1
  invoke void @_ZNSt7__cxx1112basic_stringIcSt11char_traitsIcESaIcEEC2IS3_EEPKcRKS3_(ptr noundef nonnull align 8 dereferenceable(32) %0, ptr noundef @.str.14, ptr noundef nonnull align 1 dereferenceable(1) %15)
          to label %74 unwind label %75

74:                                               ; preds = %73
  call void @_ZNSaIcED1Ev(ptr noundef nonnull align 1 dereferenceable(1) %15) #1
  br label %79

75:                                               ; preds = %73
  %76 = landingpad { ptr, i32 }
          cleanup
  %77 = extractvalue { ptr, i32 } %76, 0
  store ptr %77, ptr %7, align 8
  %78 = extractvalue { ptr, i32 } %76, 1
  store i32 %78, ptr %8, align 4
  call void @_ZNSaIcED1Ev(ptr noundef nonnull align 1 dereferenceable(1) %15) #1
  br label %80

79:                                               ; preds = %74, %68, %57, %33
  ret void

80:                                               ; preds = %75, %69, %66, %42
  %81 = load ptr, ptr %7, align 8
  %82 = load i32, ptr %8, align 4
  %83 = insertvalue { ptr, i32 } poison, ptr %81, 0
  %84 = insertvalue { ptr, i32 } %83, i32 %82, 1
  resume { ptr, i32 } %84
}