; Function Attrs: mustprogress uwtable
define void @_ZN3nix14statusToStringB5cxx11Ei(ptr dead_on_unwind noalias writable sret(%"class.std::__cxx11::basic_string") align 8 %0, i32 noundef %1) local_unnamed_addr #6 personality ptr @__gxx_personality_v0 {
  %3 = alloca %"class.boost::basic_format", align 8
  %4 = alloca %"class.std::__cxx11::basic_string", align 8
  %5 = alloca %"class.std::allocator", align 1
  %6 = alloca i32, align 4
  %7 = alloca i32, align 4
  %8 = alloca ptr, align 8
  %9 = alloca %"class.std::__cxx11::basic_string", align 8
  %10 = alloca %"class.std::allocator", align 1
  %11 = alloca %"class.std::allocator", align 1
  %12 = alloca %"class.std::allocator", align 1
  %13 = and i32 %1, 127
  %14 = and i32 %1, 65407
  %or.cond = icmp eq i32 %14, 0
  br i1 %or.cond, label %56, label %15

15:                                               ; preds = %2
  %16 = icmp eq i32 %13, 0
  br i1 %16, label %17, label %32

17:                                               ; preds = %15
  call void @_ZNSaIcEC1Ev(ptr noundef nonnull align 1 dereferenceable(1) %5) #32
  invoke void @_ZNSt7__cxx1112basic_stringIcSt11char_traitsIcESaIcEEC2IS3_EEPKcRKS3_(ptr noundef nonnull align 8 dereferenceable(32) %4, ptr noundef nonnull @.str.11, ptr noundef nonnull align 1 dereferenceable(1) %5)
          to label %18 unwind label %28

18:                                               ; preds = %17
  %19 = lshr i32 %1, 8
  %20 = and i32 %19, 255
  store i32 %20, ptr %6, align 4
  invoke void @_ZN3nix3fmtIJiEEENSt7__cxx1112basic_stringIcSt11char_traitsIcESaIcEEERKS6_DpRKT_(ptr dead_on_unwind writable sret(%"class.std::__cxx11::basic_string") align 8 %0, ptr noundef nonnull align 8 dereferenceable(32) %4, ptr noundef nonnull align 4 dereferenceable(4) %6)
          to label %21 unwind label %30

21:                                               ; preds = %18
  %22 = load ptr, ptr %4, align 8
  %23 = getelementptr inbounds i8, ptr %4, i64 16
  %24 = icmp eq ptr %22, %23
  br i1 %24, label %_ZNKSt7__cxx1112basic_stringIcSt11char_traitsIcESaIcEE11_M_is_localEv.exit.thread.i.i, label %_ZNKSt7__cxx1112basic_stringIcSt11char_traitsIcESaIcEE11_M_is_localEv.exit.i.i

_ZNKSt7__cxx1112basic_stringIcSt11char_traitsIcESaIcEE11_M_is_localEv.exit.thread.i.i: ; preds = %21
  %25 = getelementptr inbounds i8, ptr %4, i64 8
  %26 = load i64, ptr %25, align 8
  %27 = icmp ult i64 %26, 16
  call void @llvm.assume(i1 %27)
  br label %.sink.split

_ZNKSt7__cxx1112basic_stringIcSt11char_traitsIcESaIcEE11_M_is_localEv.exit.i.i: ; preds = %21
  call void @_ZdlPv(ptr noundef %22) #34
  br label %.sink.split

28:                                               ; preds = %17
  %29 = landingpad { ptr, i32 }
          cleanup
  br label %60

30:                                               ; preds = %18
  %31 = landingpad { ptr, i32 }
          cleanup
  call void @_ZNSt7__cxx1112basic_stringIcSt11char_traitsIcESaIcEED2Ev(ptr noundef nonnull align 8 dereferenceable(32) %4) #32
  br label %60

32:                                               ; preds = %15
  %33 = shl nuw nsw i32 %13, 24
  %sext = add nuw i32 %33, 16777216
  %34 = icmp sgt i32 %sext, 33554431
  br i1 %34, label %35, label %53

35:                                               ; preds = %32
  store i32 %13, ptr %7, align 4
  %36 = tail call ptr @strsignal(i32 noundef %13) #32
  store ptr %36, ptr %8, align 8
  call void @_ZNSaIcEC1Ev(ptr noundef nonnull align 1 dereferenceable(1) %10) #32
  invoke void @_ZNSt7__cxx1112basic_stringIcSt11char_traitsIcESaIcEEC2IS3_EEPKcRKS3_(ptr noundef nonnull align 8 dereferenceable(32) %9, ptr noundef nonnull @.str.12, ptr noundef nonnull align 1 dereferenceable(1) %10)
          to label %37 unwind label %49

37:                                               ; preds = %35
  call void @llvm.lifetime.start.p0(i64 224, ptr nonnull %3)
  invoke void @_ZN5boost12basic_formatIcSt11char_traitsIcESaIcEEC2ERKNSt7__cxx1112basic_stringIcS2_S3_EE(ptr noundef nonnull align 8 dereferenceable(224) %3, ptr noundef nonnull align 8 dereferenceable(32) %9)
          to label %.noexc unwind label %51

.noexc:                                           ; preds = %37
  %38 = getelementptr inbounds i8, ptr %3, i64 112
  store i8 -7, ptr %38, align 8, !noalias !13
  invoke void @_ZN3nix12formatHelperIN5boost12basic_formatIcSt11char_traitsIcESaIcEEEiJPKcEEEvRT_RKT0_DpRKT1_(ptr noundef nonnull align 8 dereferenceable(224) %3, ptr noundef nonnull align 4 dereferenceable(4) %7, ptr noundef nonnull align 8 dereferenceable(8) %8)
          to label %39 unwind label %40, !noalias !13

39:                                               ; preds = %.noexc
  invoke void @_ZNK5boost12basic_formatIcSt11char_traitsIcESaIcEE3strB5cxx11Ev(ptr dead_on_unwind writable sret(%"class.std::__cxx11::basic_string") align 8 %0, ptr noundef nonnull align 8 dereferenceable(224) %3)
          to label %42 unwind label %40

40:                                               ; preds = %39, %.noexc
  %41 = landingpad { ptr, i32 }
          cleanup
  call void @_ZN5boost12basic_formatIcSt11char_traitsIcESaIcEED2Ev(ptr noundef nonnull align 8 dereferenceable(224) %3) #32
  br label %.body

42:                                               ; preds = %39
  call void @_ZN5boost12basic_formatIcSt11char_traitsIcESaIcEED2Ev(ptr noundef nonnull align 8 dereferenceable(224) %3) #32
  call void @llvm.lifetime.end.p0(i64 224, ptr nonnull %3)
  %43 = load ptr, ptr %9, align 8
  %44 = getelementptr inbounds i8, ptr %9, i64 16
  %45 = icmp eq ptr %43, %44
  br i1 %45, label %_ZNKSt7__cxx1112basic_stringIcSt11char_traitsIcESaIcEE11_M_is_localEv.exit.thread.i.i16, label %_ZNKSt7__cxx1112basic_stringIcSt11char_traitsIcESaIcEE11_M_is_localEv.exit.i.i15

_ZNKSt7__cxx1112basic_stringIcSt11char_traitsIcESaIcEE11_M_is_localEv.exit.thread.i.i16: ; preds = %42
  %46 = getelementptr inbounds i8, ptr %9, i64 8
  %47 = load i64, ptr %46, align 8
  %48 = icmp ult i64 %47, 16
  call void @llvm.assume(i1 %48)
  br label %.sink.split

_ZNKSt7__cxx1112basic_stringIcSt11char_traitsIcESaIcEE11_M_is_localEv.exit.i.i15: ; preds = %42
  call void @_ZdlPv(ptr noundef %43) #34
  br label %.sink.split

49:                                               ; preds = %35
  %50 = landingpad { ptr, i32 }
          cleanup
  br label %60

51:                                               ; preds = %37
  %52 = landingpad { ptr, i32 }
          cleanup
  br label %.body

.body:                                            ; preds = %40, %51
  %eh.lpad-body = phi { ptr, i32 } [ %52, %51 ], [ %41, %40 ]
  call void @_ZNSt7__cxx1112basic_stringIcSt11char_traitsIcESaIcEED2Ev(ptr noundef nonnull align 8 dereferenceable(32) %9) #32
  br label %60

53:                                               ; preds = %32
  call void @_ZNSaIcEC1Ev(ptr noundef nonnull align 1 dereferenceable(1) %11) #32
  invoke void @_ZNSt7__cxx1112basic_stringIcSt11char_traitsIcESaIcEEC2IS3_EEPKcRKS3_(ptr noundef nonnull align 8 dereferenceable(32) %0, ptr noundef nonnull @.str.13, ptr noundef nonnull align 1 dereferenceable(1) %11)
          to label %59 unwind label %54

54:                                               ; preds = %53
  %55 = landingpad { ptr, i32 }
          cleanup
  br label %60

56:                                               ; preds = %2
  call void @_ZNSaIcEC1Ev(ptr noundef nonnull align 1 dereferenceable(1) %12) #32
  invoke void @_ZNSt7__cxx1112basic_stringIcSt11char_traitsIcESaIcEEC2IS3_EEPKcRKS3_(ptr noundef nonnull align 8 dereferenceable(32) %0, ptr noundef nonnull @.str.14, ptr noundef nonnull align 1 dereferenceable(1) %12)
          to label %59 unwind label %57

57:                                               ; preds = %56
  %58 = landingpad { ptr, i32 }
          cleanup
  br label %60

.sink.split:                                      ; preds = %_ZNKSt7__cxx1112basic_stringIcSt11char_traitsIcESaIcEE11_M_is_localEv.exit.i.i15, %_ZNKSt7__cxx1112basic_stringIcSt11char_traitsIcESaIcEE11_M_is_localEv.exit.thread.i.i16, %_ZNKSt7__cxx1112basic_stringIcSt11char_traitsIcESaIcEE11_M_is_localEv.exit.i.i, %_ZNKSt7__cxx1112basic_stringIcSt11char_traitsIcESaIcEE11_M_is_localEv.exit.thread.i.i
  %.sink19 = phi ptr [ %4, %_ZNKSt7__cxx1112basic_stringIcSt11char_traitsIcESaIcEE11_M_is_localEv.exit.thread.i.i ], [ %4, %_ZNKSt7__cxx1112basic_stringIcSt11char_traitsIcESaIcEE11_M_is_localEv.exit.i.i ], [ %9, %_ZNKSt7__cxx1112basic_stringIcSt11char_traitsIcESaIcEE11_M_is_localEv.exit.thread.i.i16 ], [ %9, %_ZNKSt7__cxx1112basic_stringIcSt11char_traitsIcESaIcEE11_M_is_localEv.exit.i.i15 ]
  %.sink.ph = phi ptr [ %5, %_ZNKSt7__cxx1112basic_stringIcSt11char_traitsIcESaIcEE11_M_is_localEv.exit.thread.i.i ], [ %5, %_ZNKSt7__cxx1112basic_stringIcSt11char_traitsIcESaIcEE11_M_is_localEv.exit.i.i ], [ %10, %_ZNKSt7__cxx1112basic_stringIcSt11char_traitsIcESaIcEE11_M_is_localEv.exit.thread.i.i16 ], [ %10, %_ZNKSt7__cxx1112basic_stringIcSt11char_traitsIcESaIcEE11_M_is_localEv.exit.i.i15 ]
  call void @_ZNSaIcED2Ev(ptr noundef nonnull align 1 dereferenceable(1) %.sink19) #32
  br label %59

59:                                               ; preds = %.sink.split, %56, %53
  %.sink = phi ptr [ %11, %53 ], [ %12, %56 ], [ %.sink.ph, %.sink.split ]
  call void @_ZNSaIcED1Ev(ptr noundef nonnull align 1 dereferenceable(1) %.sink) #32
  ret void

60:                                               ; preds = %49, %.body, %28, %30, %57, %54
  %.sink18 = phi ptr [ %12, %57 ], [ %11, %54 ], [ %5, %30 ], [ %5, %28 ], [ %10, %.body ], [ %10, %49 ]
  %.pn12.pn = phi { ptr, i32 } [ %58, %57 ], [ %55, %54 ], [ %31, %30 ], [ %29, %28 ], [ %eh.lpad-body, %.body ], [ %50, %49 ]
  call void @_ZNSaIcED1Ev(ptr noundef nonnull align 1 dereferenceable(1) %.sink18) #32
  resume { ptr, i32 } %.pn12.pn
}